; Function Attrs: mustprogress uwtable
define hidden noundef ptr @_ZN6Assimp18ZipArchiveIOSystem4OpenEPKcS2_(ptr nocapture noundef nonnull readonly align 8 dereferenceable(40) %this, ptr noundef %pFilename, ptr nocapture noundef readonly %pMode) unnamed_addr #2 align 2 personality ptr @__gxx_personality_v0 {
entry:
  %filename = alloca %"class.std::__cxx11::basic_string", align 8
  %ref.tmp = alloca %"class.std::allocator.0", align 1
  br label %for.cond

for.cond:                                         ; preds = %for.inc, %entry
  %i.0 = phi i64 [ 0, %entry ], [ %inc, %for.inc ]
  %arrayidx = getelementptr inbounds i8, ptr %pMode, i64 %i.0
  %0 = load i8, ptr %arrayidx, align 1
  switch i8 %0, label %for.inc [
    i8 0, label %for.end
    i8 119, label %return
  ]

for.inc:                                          ; preds = %for.cond
  %inc = add i64 %i.0, 1
  br label %for.cond, !llvm.loop !22

for.end:                                          ; preds = %for.cond
  call void @_ZNSaIcEC1Ev(ptr noundef nonnull align 1 dereferenceable(1) %ref.tmp) #28
  %call.i5 = invoke noundef ptr @_ZNSt7__cxx1112basic_stringIcSt11char_traitsIcESaIcEE13_M_local_dataEv(ptr noundef nonnull align 8 dereferenceable(32) %filename)
          to label %call.i.noexc unwind label %lpad

call.i.noexc:                                     ; preds = %for.end
  invoke void @_ZNSt7__cxx1112basic_stringIcSt11char_traitsIcESaIcEE12_Alloc_hiderC1EPcRKS3_(ptr noundef nonnull align 8 dereferenceable(8) %filename, ptr noundef %call.i5, ptr noundef nonnull align 1 dereferenceable(1) %ref.tmp)
          to label %.noexc unwind label %lpad

.noexc:                                           ; preds = %call.i.noexc
  %cmp.i = icmp eq ptr %pFilename, null
  br i1 %cmp.i, label %if.then.i, label %if.end.i

if.then.i:                                        ; preds = %.noexc
  invoke void @_ZSt19__throw_logic_errorPKc(ptr noundef nonnull @.str.8) #33
          to label %invoke.cont.i unwind label %lpad.i

invoke.cont.i:                                    ; preds = %if.then.i
  unreachable

lpad.i:                                           ; preds = %if.end.i, %if.then.i
  %1 = landingpad { ptr, i32 }
          cleanup
  call void @_ZNSaIcED2Ev(ptr noundef nonnull align 1 dereferenceable(1) %filename) #28
  br label %lpad.body

if.end.i:                                         ; preds = %.noexc
  %call.i.i = call noundef i64 @strlen(ptr noundef nonnull dereferenceable(1) %pFilename) #28
  %add.ptr.i = getelementptr inbounds i8, ptr %pFilename, i64 %call.i.i
  invoke void @_ZNSt7__cxx1112basic_stringIcSt11char_traitsIcESaIcEE12_M_constructIPKcEEvT_S8_St20forward_iterator_tag(ptr noundef nonnull align 8 dereferenceable(32) %filename, ptr noundef nonnull %pFilename, ptr noundef nonnull %add.ptr.i)
          to label %invoke.cont unwind label %lpad.i

invoke.cont:                                      ; preds = %if.end.i
  call void @_ZNSaIcED1Ev(ptr noundef nonnull align 1 dereferenceable(1) %ref.tmp) #28
  %pImpl = getelementptr inbounds i8, ptr %this, i64 32
  %2 = load ptr, ptr %pImpl, align 8
  %call = invoke noundef ptr @_ZN6Assimp18ZipArchiveIOSystem9Implement8OpenFileERNSt7__cxx1112basic_stringIcSt11char_traitsIcESaIcEEE(ptr noundef nonnull align 8 dereferenceable(56) %2, ptr noundef nonnull align 8 dereferenceable(32) %filename)
          to label %invoke.cont6 unwind label %lpad5

invoke.cont6:                                     ; preds = %invoke.cont
  call void @_ZNSt7__cxx1112basic_stringIcSt11char_traitsIcESaIcEED1Ev(ptr noundef nonnull align 8 dereferenceable(32) %filename) #28
  br label %return

lpad:                                             ; preds = %call.i.noexc, %for.end
  %3 = landingpad { ptr, i32 }
          cleanup
  br label %lpad.body

lpad.body:                                        ; preds = %lpad.i, %lpad
  %eh.lpad-body = phi { ptr, i32 } [ %3, %lpad ], [ %1, %lpad.i ]
  call void @_ZNSaIcED1Ev(ptr noundef nonnull align 1 dereferenceable(1) %ref.tmp) #28
  br label %eh.resume

lpad5:                                            ; preds = %invoke.cont
  %4 = landingpad { ptr, i32 }
          cleanup
  call void @_ZNSt7__cxx1112basic_stringIcSt11char_traitsIcESaIcEED1Ev(ptr noundef nonnull align 8 dereferenceable(32) %filename) #28
  br label %eh.resume

return:                                           ; preds = %for.cond, %invoke.cont6
  %retval.0 = phi ptr [ %call, %invoke.cont6 ], [ null, %for.cond ]
  ret ptr %retval.0

eh.resume:                                        ; preds = %lpad5, %lpad.body
  %.pn = phi { ptr, i32 } [ %4, %lpad5 ], [ %eh.lpad-body, %lpad.body ]
  resume { ptr, i32 } %.pn
}